ccopy_reg
_reconstructor
p1
(cexeco_engine.sweep
HashableDict
p2
c__builtin__
dict
p3
(dp4
S'workload_filename'
p5
V/home/mmercier/expe-batsim/workload_generation/generated_workloads/2016-04-15/g5k_micro_workload_delay_seed4_size32.json
p6
stRp7
.