ccopy_reg
_reconstructor
p1
(cexeco_engine.sweep
HashableDict
p2
c__builtin__
dict
p3
(dp4
S'workload_filename'
p5
V/home/mmercier/expe-batsim/workload_generation/generated_workloads/2016-05-04/g5k_workload_delay_seed5_size32.json
p6
stRp7
.ccopy_reg
_reconstructor
p1
(cexeco_engine.sweep
HashableDict
p2
c__builtin__
dict
p3
(dp4
S'workload_filename'
p5
V/home/mmercier/expe-batsim/workload_generation/generated_workloads/2016-05-04/g5k_workload_delay_seed2_size32.json
p6
stRp7
.ccopy_reg
_reconstructor
p1
(cexeco_engine.sweep
HashableDict
p2
c__builtin__
dict
p3
(dp4
S'workload_filename'
p5
V/home/mmercier/expe-batsim/workload_generation/generated_workloads/2016-05-04/g5k_workload_delay_seed8_size32.json
p6
stRp7
.ccopy_reg
_reconstructor
p1
(cexeco_engine.sweep
HashableDict
p2
c__builtin__
dict
p3
(dp4
S'workload_filename'
p5
V/home/mmercier/expe-batsim/workload_generation/generated_workloads/2016-05-04/g5k_workload_delay_seed3_size32.json
p6
stRp7
.ccopy_reg
_reconstructor
p1
(cexeco_engine.sweep
HashableDict
p2
c__builtin__
dict
p3
(dp4
S'workload_filename'
p5
V/home/mmercier/expe-batsim/workload_generation/generated_workloads/2016-05-04/g5k_workload_delay_seed0_size32.json
p6
stRp7
.ccopy_reg
_reconstructor
p1
(cexeco_engine.sweep
HashableDict
p2
c__builtin__
dict
p3
(dp4
S'workload_filename'
p5
V/home/mmercier/expe-batsim/workload_generation/generated_workloads/2016-05-04/g5k_workload_delay_seed1_size32.json
p6
stRp7
.ccopy_reg
_reconstructor
p1
(cexeco_engine.sweep
HashableDict
p2
c__builtin__
dict
p3
(dp4
S'workload_filename'
p5
V/home/mmercier/expe-batsim/workload_generation/generated_workloads/2016-05-04/g5k_workload_delay_seed6_size32.json
p6
stRp7
.ccopy_reg
_reconstructor
p1
(cexeco_engine.sweep
HashableDict
p2
c__builtin__
dict
p3
(dp4
S'workload_filename'
p5
V/home/mmercier/expe-batsim/workload_generation/generated_workloads/2016-05-04/g5k_workload_delay_seed7_size32.json
p6
stRp7
.ccopy_reg
_reconstructor
p1
(cexeco_engine.sweep
HashableDict
p2
c__builtin__
dict
p3
(dp4
S'workload_filename'
p5
V/home/mmercier/expe-batsim/workload_generation/generated_workloads/2016-05-04/g5k_workload_delay_seed4_size32.json
p6
stRp7
.