c__builtin__
set
p1
((lp2
ccopy_reg
_reconstructor
p3
(cexeco_engine.sweep
HashableDict
p4
c__builtin__
dict
p5
(dp6
S'workload_filename'
p7
V/home/mmercier/expe-batsim/workload_generation/generated_workloads/2016-05-04/g5k_workload_delay_seed9_size32.json
p8
stRp9
atRp10
.