ccopy_reg
_reconstructor
p1
(cexeco_engine.sweep
HashableDict
p2
c__builtin__
dict
p3
(dp4
S'workload_filename'
p5
S'/home/mmercier/expe-batsim/replay_workload/../workload_generation/generated_workloads/g5k_workload_delay3.json'
p6
stRp7
.ccopy_reg
_reconstructor
p1
(cexeco_engine.sweep
HashableDict
p2
c__builtin__
dict
p3
(dp4
S'workload_filename'
p5
S'/home/mmercier/expe-batsim/replay_workload/../workload_generation/generated_workloads/g5k_workload_delay1.json'
p6
stRp7
.ccopy_reg
_reconstructor
p1
(cexeco_engine.sweep
HashableDict
p2
c__builtin__
dict
p3
(dp4
S'workload_filename'
p5
S'/home/mmercier/expe-batsim/replay_workload/../workload_generation/generated_workloads/g5k_workload_delay4.json'
p6
stRp7
.ccopy_reg
_reconstructor
p1
(cexeco_engine.sweep
HashableDict
p2
c__builtin__
dict
p3
(dp4
S'workload_filename'
p5
S'/home/mmercier/expe-batsim/replay_workload/../workload_generation/generated_workloads/g5k_workload_delay2.json'
p6
stRp7
.ccopy_reg
_reconstructor
p1
(cexeco_engine.sweep
HashableDict
p2
c__builtin__
dict
p3
(dp4
S'workload_filename'
p5
S'/home/mmercier/expe-batsim/replay_workload/../workload_generation/generated_workloads/g5k_workload_delay0.json'
p6
stRp7
.