c__builtin__
set
p1
((lp2
ccopy_reg
_reconstructor
p3
(cexeco_engine.sweep
HashableDict
p4
c__builtin__
dict
p5
(dp6
S'workload_filename'
p7
S'/home/mmercier/expe-batsim/replay_workload/../workload_generation/generated_workloads/g5k_workload_delay3.json'
p8
stRp9
atRp10
.