ccopy_reg
_reconstructor
p1
(cexeco_engine.sweep
HashableDict
p2
c__builtin__
dict
p3
(dp4
S'workload_filename'
p5
S'/home/mmercier/expe-batsim/replay_workload/../workload_generation/generated_workloads/mini_workload5.json'
p6
stRp7
.